target datalayout = "e-m:e-p270:32:32-p271:32:32-p272:64:64-i64:64-i128:128-f80:128-n8:16:32:64-S128"
target triple = "x86_64-pc-linux-gnu"

; Function Attrs: nounwind uwtable
define hidden i32 @openPCMfromDeviceID(i32 noundef %0, ptr noundef %1, i32 noundef %2, i32 noundef %3) #0 {
  %5 = alloca i32, align 4
  %6 = alloca ptr, align 8
  %7 = alloca i32, align 4
  %8 = alloca i32, align 4
  %9 = alloca [200 x i8], align 16
  %10 = alloca i32, align 4
  store i32 %0, ptr %5, align 4
  store ptr %1, ptr %6, align 8
  store i32 %2, ptr %7, align 4
  store i32 %3, ptr %8, align 4
  call void (...) @initAlsaSupport()
  %11 = getelementptr inbounds [200 x i8], ptr %9, i64 0, i64 0
  %12 = load i32, ptr %5, align 4
  %13 = load i32, ptr %8, align 4
  %14 = icmp ne i32 %13, 0
  %15 = xor i1 %14, true
  %16 = zext i1 %15 to i32
  call void @getDeviceStringFromDeviceID(ptr noundef %11, i64 noundef 200, i32 noundef %12, i32 noundef %16, i32 noundef 0)
  %17 = load ptr, ptr %6, align 8
  %18 = getelementptr inbounds [200 x i8], ptr %9, i64 0, i64 0
  %19 = load i32, ptr %7, align 4
  %20 = icmp ne i32 %19, 0
  %21 = select i1 %20, i32 0, i32 1
  %22 = call i32 @snd_pcm_open(ptr noundef %17, ptr noundef %18, i32 noundef %21, i32 noundef 1)
  store i32 %22, ptr %10, align 4
  %23 = load i32, ptr %10, align 4
  %24 = icmp ne i32 %23, 0
  br i1 %24, label %25, label %27

25:                                               ; preds = %4
  %26 = load ptr, ptr %6, align 8
  store ptr null, ptr %26, align 8
  br label %27

27:                                               ; preds = %25, %4
  %28 = load i32, ptr %10, align 4
  ret i32 %28
}