; Function Attrs: nounwind uwtable
define hidden i32 @openPCMfromDeviceID(i32 noundef %0, ptr noundef %1, i32 noundef %2, i32 noundef %3) local_unnamed_addr #0 {
  %5 = alloca [200 x i8], align 16
  tail call void (...) @initAlsaSupport() #5
  %.not = icmp eq i32 %3, 0
  %6 = zext i1 %.not to i32
  call void @getDeviceStringFromDeviceID(ptr noundef nonnull %5, i64 noundef 200, i32 noundef %0, i32 noundef %6, i32 noundef 0) #5
  %.not6 = icmp eq i32 %2, 0
  %7 = zext i1 %.not6 to i32
  %8 = call i32 @snd_pcm_open(ptr noundef %1, ptr noundef nonnull %5, i32 noundef %7, i32 noundef 1) #5
  %.not7 = icmp eq i32 %8, 0
  br i1 %.not7, label %10, label %9

9:                                                ; preds = %4
  store ptr null, ptr %1, align 8
  br label %10

10:                                               ; preds = %9, %4
  ret i32 %8
}